; Function Attrs: mustprogress nounwind uwtable
define internal void @_ZN6hermes2vm12_GLOBAL__N_127ContiguousVAStorageProvider17deleteStorageImplEPv(ptr noundef nonnull align 8 dereferenceable(72) %this, ptr noundef %storage) unnamed_addr #3 align 2 {
entry:
  tail call void @_ZN6hermes8oscompat7vm_nameEPvmPKc(ptr noundef %storage, i64 noundef 4194304, ptr noundef nonnull @.str.4) #18
  tail call void @_ZN6hermes8oscompat11vm_uncommitEPvm(ptr noundef %storage, i64 noundef 4194304) #18
  %freelist_ = getelementptr inbounds i8, ptr %this, i64 56
  %Size.i.i = getelementptr inbounds i8, ptr %this, i64 64
  %0 = load i32, ptr %Size.i.i, align 8
  %Capacity.i.i = getelementptr inbounds i8, ptr %this, i64 68
  %1 = load i32, ptr %Capacity.i.i, align 4
  %cmp.not.i = icmp ult i32 %0, %1
  br i1 %cmp.not.i, label %_ZN4llvh23SmallVectorTemplateBaseIPvLb1EE9push_backERKS1_.exit, label %if.then.i

if.then.i:                                        ; preds = %entry
  %add.ptr.i.i.i.i = getelementptr inbounds i8, ptr %this, i64 72
  tail call void @_ZN4llvh15SmallVectorBase8grow_podEPvmm(ptr noundef nonnull align 8 dereferenceable(16) %freelist_, ptr noundef nonnull %add.ptr.i.i.i.i, i64 noundef 0, i64 noundef 8) #18
  %.pre.i = load i32, ptr %Size.i.i, align 8
  br label %_ZN4llvh23SmallVectorTemplateBaseIPvLb1EE9push_backERKS1_.exit

_ZN4llvh23SmallVectorTemplateBaseIPvLb1EE9push_backERKS1_.exit: ; preds = %entry, %if.then.i
  %2 = phi i32 [ %.pre.i, %if.then.i ], [ %0, %entry ]
  %3 = load ptr, ptr %freelist_, align 8
  %conv.i3.i = zext i32 %2 to i64
  %add.ptr.i.i = getelementptr inbounds ptr, ptr %3, i64 %conv.i3.i
  %4 = ptrtoint ptr %storage to i64
  store i64 %4, ptr %add.ptr.i.i, align 1
  %5 = load i32, ptr %Size.i.i, align 8
  %add.i = add i32 %5, 1
  store i32 %add.i, ptr %Size.i.i, align 8
  ret void
}